; Function Attrs: mustprogress nounwind uwtable
define hidden noundef ptr @_ZN6hermes5irgen11ESTreeIRGen20emitIteratorNextSlowENS1_18IteratorRecordSlowE(ptr noundef nonnull align 8 dereferenceable(200) %this, ptr %iteratorRecord.coerce0, ptr %iteratorRecord.coerce1) local_unnamed_addr #0 align 2 {
entry:
  %ref.tmp2.i = alloca [2 x ptr], align 8
  %Builder = getelementptr inbounds i8, ptr %this, i64 8
  %call = tail call noundef ptr @_ZN6hermes9IRBuilder14createCallInstEPNS_13LiteralStringEPNS_5ValueES4_N4llvh8ArrayRefIS4_EE(ptr noundef nonnull align 8 dereferenceable(40) %Builder, ptr noundef null, ptr noundef %iteratorRecord.coerce1, ptr noundef %iteratorRecord.coerce0, ptr null, i64 0) #15
  %0 = icmp eq ptr %call, null
  %add.ptr = getelementptr inbounds i8, ptr %call, i64 16
  %spec.select = select i1 %0, ptr null, ptr %add.ptr
  call void @llvm.lifetime.start.p0(i64 16, ptr nonnull %ref.tmp2.i)
  store ptr %spec.select, ptr %ref.tmp2.i, align 8
  %arrayinit.element.i = getelementptr inbounds i8, ptr %ref.tmp2.i, i64 8
  %call.i = tail call noundef ptr @_ZN6hermes9IRBuilder16getLiteralStringEN4llvh9StringRefE(ptr noundef nonnull align 8 dereferenceable(40) %Builder, ptr nonnull @.str.16, i64 40) #15
  store ptr %call.i, ptr %arrayinit.element.i, align 8
  %call.i.i = call noundef ptr @_ZN6hermes9IRBuilder21createCallBuiltinInstENS_13BuiltinMethod4EnumEN4llvh8ArrayRefIPNS_5ValueEEE(ptr noundef nonnull align 8 dereferenceable(40) %Builder, i8 noundef zeroext 40, ptr nonnull %ref.tmp2.i, i64 2) #15
  call void @llvm.lifetime.end.p0(i64 16, ptr nonnull %ref.tmp2.i)
  ret ptr %spec.select
}